; Function Attrs: mustprogress nofree norecurse nosync nounwind willreturn memory(argmem: write) uwtable
define void @Dch_ManSetDefaultParams(ptr noundef writeonly captures(none) initializes((0, 72)) %0) local_unnamed_addr #0 {
  %2 = getelementptr inbounds nuw i8, ptr %0, i64 24
  tail call void @llvm.memset.p0.i64(ptr noundef nonnull align 8 dereferenceable(72) %2, i8 0, i64 40, i1 false)
  store i32 8, ptr %0, align 8, !tbaa !3
  %3 = getelementptr inbounds nuw i8, ptr %0, i64 4
  store i32 1000, ptr %3, align 4, !tbaa !9
  %4 = getelementptr inbounds nuw i8, ptr %0, i64 8
  store i32 5000, ptr %4, align 8, !tbaa !10
  %5 = getelementptr inbounds nuw i8, ptr %0, i64 12
  store i32 1, ptr %5, align 4, !tbaa !11
  %6 = getelementptr inbounds nuw i8, ptr %0, i64 16
  store i32 1, ptr %6, align 8, !tbaa !12
  %7 = getelementptr inbounds nuw i8, ptr %0, i64 20
  store i32 1, ptr %7, align 4, !tbaa !13
  %8 = getelementptr inbounds nuw i8, ptr %0, i64 44
  store i32 0, ptr %8, align 4, !tbaa !14
  %9 = getelementptr inbounds nuw i8, ptr %0, i64 52
  store i32 0, ptr %9, align 4, !tbaa !15
  %10 = getelementptr inbounds nuw i8, ptr %0, i64 64
  store i32 1000, ptr %10, align 8, !tbaa !16
  %11 = getelementptr inbounds nuw i8, ptr %0, i64 68
  store i32 100, ptr %11, align 4, !tbaa !17
  ret void
}